; Function Attrs: mustprogress nounwind uwtable
define dso_local void @_ZN34btDeformableBackwardEulerObjectiveD2Ev(ptr noundef nonnull align 8 dereferenceable(504) %this) unnamed_addr #4 align 2 personality ptr @__gxx_personality_v0 {
entry:
  store ptr getelementptr inbounds ({ [5 x ptr] }, ptr @_ZTV34btDeformableBackwardEulerObjective, i64 0, i32 0, i64 2), ptr %this, align 8
  %m_KKTPreconditioner = getelementptr inbounds i8, ptr %this, i64 496
  %0 = load ptr, ptr %m_KKTPreconditioner, align 8
  %isnull = icmp eq ptr %0, null
  br i1 %isnull, label %delete.end, label %delete.notnull

delete.notnull:                                   ; preds = %entry
  %vtable = load ptr, ptr %0, align 8
  %vfn = getelementptr inbounds i8, ptr %vtable, i64 24
  %1 = load ptr, ptr %vfn, align 8
  tail call void %1(ptr noundef nonnull align 8 dereferenceable(112) %0) #20
  br label %delete.end

delete.end:                                       ; preds = %delete.notnull, %entry
  %m_massPreconditioner = getelementptr inbounds i8, ptr %this, i64 488
  %2 = load ptr, ptr %m_massPreconditioner, align 8
  %isnull2 = icmp eq ptr %2, null
  br i1 %isnull2, label %delete.end6, label %delete.notnull3

delete.notnull3:                                  ; preds = %delete.end
  %vtable4 = load ptr, ptr %2, align 8
  %vfn5 = getelementptr inbounds i8, ptr %vtable4, i64 24
  %3 = load ptr, ptr %vfn5, align 8
  tail call void %3(ptr noundef nonnull align 8 dereferenceable(48) %2) #20
  br label %delete.end6

delete.end6:                                      ; preds = %delete.notnull3, %delete.end
  %m_data.i.i.i = getelementptr inbounds i8, ptr %this, i64 464
  %4 = load ptr, ptr %m_data.i.i.i, align 8
  %tobool.not.i.i.i = icmp eq ptr %4, null
  br i1 %tobool.not.i.i.i, label %_ZN20btAlignedObjectArrayIPN10btSoftBody4NodeEED2Ev.exit, label %if.then.i.i.i

if.then.i.i.i:                                    ; preds = %delete.end6
  %m_ownsMemory.i.i.i = getelementptr inbounds i8, ptr %this, i64 472
  %5 = load i8, ptr %m_ownsMemory.i.i.i, align 8
  %6 = and i8 %5, 1
  %tobool2.not.i.i.i = icmp eq i8 %6, 0
  br i1 %tobool2.not.i.i.i, label %_ZN20btAlignedObjectArrayIPN10btSoftBody4NodeEED2Ev.exit, label %if.then3.i.i.i

if.then3.i.i.i:                                   ; preds = %if.then.i.i.i
  invoke void @_Z21btAlignedFreeInternalPv(ptr noundef nonnull %4)
          to label %_ZN20btAlignedObjectArrayIPN10btSoftBody4NodeEED2Ev.exit unwind label %terminate.lpad.i

terminate.lpad.i:                                 ; preds = %if.then3.i.i.i
  %7 = landingpad { ptr, i32 }
          catch ptr null
  %8 = extractvalue { ptr, i32 } %7, 0
  tail call void @__clang_call_terminate(ptr %8) #19
  unreachable

_ZN20btAlignedObjectArrayIPN10btSoftBody4NodeEED2Ev.exit: ; preds = %delete.end6, %if.then.i.i.i, %if.then3.i.i.i
  %m_size.i.i.i = getelementptr inbounds i8, ptr %this, i64 452
  %m_ownsMemory.i1.i.i = getelementptr inbounds i8, ptr %this, i64 472
  store i8 1, ptr %m_ownsMemory.i1.i.i, align 8
  store ptr null, ptr %m_data.i.i.i, align 8
  store i32 0, ptr %m_size.i.i.i, align 4
  %m_capacity.i.i.i = getelementptr inbounds i8, ptr %this, i64 456
  store i32 0, ptr %m_capacity.i.i.i, align 8
  %m_projection = getelementptr inbounds i8, ptr %this, i64 64
  tail call void @_ZN29btDeformableContactProjectionD2Ev(ptr noundef nonnull align 8 dereferenceable(369) %m_projection) #20
  %m_data.i.i.i2 = getelementptr inbounds i8, ptr %this, i64 32
  %9 = load ptr, ptr %m_data.i.i.i2, align 8
  %tobool.not.i.i.i3 = icmp eq ptr %9, null
  br i1 %tobool.not.i.i.i3, label %_ZN20btAlignedObjectArrayIP27btDeformableLagrangianForceED2Ev.exit, label %if.then.i.i.i4

if.then.i.i.i4:                                   ; preds = %_ZN20btAlignedObjectArrayIPN10btSoftBody4NodeEED2Ev.exit
  %m_ownsMemory.i.i.i5 = getelementptr inbounds i8, ptr %this, i64 40
  %10 = load i8, ptr %m_ownsMemory.i.i.i5, align 8
  %11 = and i8 %10, 1
  %tobool2.not.i.i.i6 = icmp eq i8 %11, 0
  br i1 %tobool2.not.i.i.i6, label %_ZN20btAlignedObjectArrayIP27btDeformableLagrangianForceED2Ev.exit, label %if.then3.i.i.i7

if.then3.i.i.i7:                                  ; preds = %if.then.i.i.i4
  invoke void @_Z21btAlignedFreeInternalPv(ptr noundef nonnull %9)
          to label %_ZN20btAlignedObjectArrayIP27btDeformableLagrangianForceED2Ev.exit unwind label %terminate.lpad.i8

terminate.lpad.i8:                                ; preds = %if.then3.i.i.i7
  %12 = landingpad { ptr, i32 }
          catch ptr null
  %13 = extractvalue { ptr, i32 } %12, 0
  tail call void @__clang_call_terminate(ptr %13) #19
  unreachable

_ZN20btAlignedObjectArrayIP27btDeformableLagrangianForceED2Ev.exit: ; preds = %_ZN20btAlignedObjectArrayIPN10btSoftBody4NodeEED2Ev.exit, %if.then.i.i.i4, %if.then3.i.i.i7
  %m_size.i.i.i9 = getelementptr inbounds i8, ptr %this, i64 20
  %m_ownsMemory.i1.i.i10 = getelementptr inbounds i8, ptr %this, i64 40
  store i8 1, ptr %m_ownsMemory.i1.i.i10, align 8
  store ptr null, ptr %m_data.i.i.i2, align 8
  store i32 0, ptr %m_size.i.i.i9, align 4
  %m_capacity.i.i.i11 = getelementptr inbounds i8, ptr %this, i64 24
  store i32 0, ptr %m_capacity.i.i.i11, align 8
  ret void
}